target datalayout = "e-m:e-p270:32:32-p271:32:32-p272:64:64-i64:64-i128:128-f80:128-n8:16:32:64-S128"
target triple = "x86_64-unknown-linux-gnu"

%"struct.hermes::Interval" = type { %"class.llvh::SmallVector" }
%"class.llvh::SmallVector" = type { %"class.llvh::SmallVectorImpl", %"struct.llvh::SmallVectorStorage" }
%"class.llvh::SmallVectorImpl" = type { %"class.llvh::SmallVectorTemplateBase" }
%"class.llvh::SmallVectorTemplateBase" = type { %"class.llvh::SmallVectorTemplateCommon" }
%"class.llvh::SmallVectorTemplateCommon" = type { %"class.llvh::SmallVectorBase" }
%"class.llvh::SmallVectorBase" = type { ptr, i32, i32 }
%"struct.llvh::SmallVectorStorage" = type { [2 x %"struct.llvh::AlignedCharArrayUnion"] }
%"struct.llvh::AlignedCharArrayUnion" = type { %"struct.llvh::AlignedCharArray" }
%"struct.llvh::AlignedCharArray" = type { [16 x i8] }
%"class.hermes::RegisterFile" = type { %"class.llvh::BitVector" }
%"class.llvh::BitVector" = type <{ %"class.llvh::MutableArrayRef", i32, [4 x i8] }>
%"class.llvh::MutableArrayRef" = type { %"class.llvh::ArrayRef" }
%"class.llvh::ArrayRef" = type { ptr, i64 }
%"struct.llvh::AlignedCharArray.7" = type { [8 x i8] }
%"class.llvh::SmallVectorImpl.12" = type { %"class.llvh::SmallVectorTemplateBase.13" }
%"class.llvh::SmallVectorTemplateBase.13" = type { %"class.llvh::SmallVectorTemplateCommon.14" }
%"class.llvh::SmallVectorTemplateCommon.14" = type { %"class.llvh::SmallVectorBase" }
%"struct.llvh::AlignedCharArrayUnion.16" = type { %"struct.llvh::AlignedCharArray.7" }
%"class.hermes::RegisterAllocator" = type { ptr, %"class.llvh::DenseMap", %"class.llvh::DenseMap.8", %"class.llvh::SmallVector.11", %"class.llvh::SmallVector.17", %"class.llvh::DenseMap.24", %"class.hermes::RegisterFile", i32, i64, ptr }
%"class.llvh::DenseMap" = type <{ ptr, i32, i32, i32, [4 x i8] }>
%"class.llvh::DenseMap.8" = type <{ ptr, i32, i32, i32, [4 x i8] }>
%"class.llvh::SmallVector.11" = type { %"class.llvh::SmallVectorImpl.12", %"struct.llvh::SmallVectorStorage.15" }
%"struct.llvh::SmallVectorStorage.15" = type { [32 x %"struct.llvh::AlignedCharArrayUnion.16"] }
%"class.llvh::SmallVector.17" = type { %"class.llvh::SmallVectorImpl.18", %"struct.llvh::SmallVectorStorage.21" }
%"class.llvh::SmallVectorImpl.18" = type { %"class.llvh::SmallVectorTemplateBase.19" }
%"class.llvh::SmallVectorTemplateBase.19" = type { %"class.llvh::SmallVectorTemplateCommon.20" }
%"class.llvh::SmallVectorTemplateCommon.20" = type { %"class.llvh::SmallVectorBase" }
%"struct.llvh::SmallVectorStorage.21" = type { [32 x %"struct.llvh::AlignedCharArrayUnion.22"] }
%"struct.llvh::AlignedCharArrayUnion.22" = type { %"struct.llvh::AlignedCharArray.23" }
%"struct.llvh::AlignedCharArray.23" = type { [48 x i8] }
%"class.llvh::DenseMap.24" = type <{ ptr, i32, i32, i32, [4 x i8] }>

; Function Attrs: mustprogress nounwind uwtable
define hidden noundef nonnull align 8 dereferenceable(48) ptr @_ZN6hermes17RegisterAllocator22getInstructionIntervalEPNS_11InstructionE(ptr noundef nonnull align 8 dereferenceable(1952) %this, ptr noundef %I) #0 align 2 {
entry:
  %this.addr.i3 = alloca ptr, align 8
  %this.addr.i = alloca ptr, align 8
  %idx.addr.i = alloca i64, align 8
  %this.addr = alloca ptr, align 8
  %I.addr = alloca ptr, align 8
  %idx = alloca i32, align 4
  store ptr %this, ptr %this.addr, align 8
  store ptr %I, ptr %I.addr, align 8
  %this1 = load ptr, ptr %this.addr, align 8
  %0 = load ptr, ptr %I.addr, align 8
  %call = call noundef i32 @_ZN6hermes17RegisterAllocator20getInstructionNumberEPNS_11InstructionE(ptr noundef nonnull align 8 dereferenceable(1952) %this1, ptr noundef %0)
  store i32 %call, ptr %idx, align 4
  %instructionInterval_ = getelementptr inbounds %"class.hermes::RegisterAllocator", ptr %this1, i32 0, i32 4
  %1 = load i32, ptr %idx, align 4
  %conv = zext i32 %1 to i64
  store ptr %instructionInterval_, ptr %this.addr.i, align 8
  store i64 %conv, ptr %idx.addr.i, align 8
  %this1.i = load ptr, ptr %this.addr.i, align 8
  store ptr %this1.i, ptr %this.addr.i3, align 8
  %this1.i4 = load ptr, ptr %this.addr.i3, align 8
  %2 = load ptr, ptr %this1.i4, align 8
  %3 = load i64, ptr %idx.addr.i, align 8
  %arrayidx.i = getelementptr inbounds %"struct.hermes::Interval", ptr %2, i64 %3
  ret ptr %arrayidx.i
}