; Function Attrs: mustprogress nounwind uwtable
define hidden noundef nonnull align 8 dereferenceable(48) ptr @_ZN6hermes17RegisterAllocator22getInstructionIntervalEPNS_11InstructionE(ptr noundef nonnull align 8 dereferenceable(1952) %this, ptr noundef %I) local_unnamed_addr #0 align 2 {
entry:
  %call = tail call noundef i32 @_ZN6hermes17RegisterAllocator20getInstructionNumberEPNS_11InstructionE(ptr noundef nonnull align 8 dereferenceable(1952) %this, ptr noundef %I)
  %instructionInterval_ = getelementptr inbounds i8, ptr %this, i64 328
  %conv = zext i32 %call to i64
  %0 = load ptr, ptr %instructionInterval_, align 8
  %arrayidx.i = getelementptr inbounds %"struct.hermes::Interval", ptr %0, i64 %conv
  ret ptr %arrayidx.i
}